; Function Attrs: nofree norecurse nosync nounwind memory(readwrite, inaccessiblemem: none) uwtable
define internal noundef i32 @unpack_half_to_float_4chan_planar(ptr noundef readonly captures(none) %0) #1 {
  %2 = getelementptr inbounds nuw i8, ptr %0, i64 8
  %3 = load ptr, ptr %2, align 8, !tbaa !22
  %4 = getelementptr inbounds nuw i8, ptr %3, i64 12
  %5 = load i32, ptr %4, align 4, !tbaa !65
  %6 = getelementptr inbounds nuw i8, ptr %0, i64 44
  %7 = load i32, ptr %6, align 4, !tbaa !16
  %8 = getelementptr inbounds nuw i8, ptr %0, i64 100
  %9 = load i32, ptr %8, align 4, !tbaa !17
  %10 = sub nsw i32 %7, %9
  %11 = getelementptr inbounds nuw i8, ptr %0, i64 96
  %12 = load i32, ptr %11, align 8, !tbaa !19
  %13 = icmp slt i32 %12, %10
  br i1 %13, label %.lr.ph, label %._crit_edge

.lr.ph:                                           ; preds = %1
  %14 = getelementptr inbounds nuw i8, ptr %0, i64 136
  %15 = load ptr, ptr %14, align 8, !tbaa !21
  %16 = shl i32 %5, 3
  %17 = mul i32 %16, %12
  %18 = sext i32 %17 to i64
  %19 = getelementptr inbounds i8, ptr %15, i64 %18
  %20 = getelementptr inbounds nuw i8, ptr %3, i64 184
  %21 = load ptr, ptr %20, align 8, !tbaa !3
  %22 = getelementptr inbounds nuw i8, ptr %3, i64 136
  %23 = load ptr, ptr %22, align 8, !tbaa !3
  %24 = getelementptr inbounds nuw i8, ptr %3, i64 88
  %25 = load ptr, ptr %24, align 8, !tbaa !3
  %26 = getelementptr inbounds nuw i8, ptr %3, i64 40
  %27 = load ptr, ptr %26, align 8, !tbaa !3
  %28 = getelementptr inbounds nuw i8, ptr %3, i64 180
  %29 = load i32, ptr %28, align 4, !tbaa !32
  %30 = getelementptr inbounds nuw i8, ptr %3, i64 132
  %31 = load i32, ptr %30, align 4, !tbaa !32
  %32 = getelementptr inbounds nuw i8, ptr %3, i64 84
  %33 = load i32, ptr %32, align 4, !tbaa !32
  %34 = getelementptr inbounds nuw i8, ptr %3, i64 36
  %35 = load i32, ptr %34, align 4, !tbaa !32
  %36 = sext i32 %5 to i64
  %37 = sext i32 %16 to i64
  %38 = sext i32 %35 to i64
  %39 = sext i32 %33 to i64
  %40 = sext i32 %31 to i64
  %41 = sext i32 %29 to i64
  br label %42

._crit_edge:                                      ; preds = %42, %1
  ret i32 0

42:                                               ; preds = %.lr.ph, %42
  %.057 = phi i32 [ %12, %.lr.ph ], [ %51, %42 ]
  %.04756 = phi ptr [ %19, %.lr.ph ], [ %46, %42 ]
  %.04855 = phi ptr [ %27, %.lr.ph ], [ %47, %42 ]
  %.04954 = phi ptr [ %25, %.lr.ph ], [ %48, %42 ]
  %.05053 = phi ptr [ %23, %.lr.ph ], [ %49, %42 ]
  %.05152 = phi ptr [ %21, %.lr.ph ], [ %50, %42 ]
  %43 = getelementptr inbounds i16, ptr %.04756, i64 %36
  %44 = getelementptr inbounds i16, ptr %43, i64 %36
  %45 = getelementptr inbounds i16, ptr %44, i64 %36
  %46 = getelementptr inbounds i8, ptr %.04756, i64 %37
  tail call fastcc void @half_to_float_buffer(ptr noundef %.04855, ptr noundef %.04756, i32 noundef %5)
  tail call fastcc void @half_to_float_buffer(ptr noundef %.04954, ptr noundef %43, i32 noundef %5)
  tail call fastcc void @half_to_float_buffer(ptr noundef %.05053, ptr noundef %44, i32 noundef %5)
  tail call fastcc void @half_to_float_buffer(ptr noundef %.05152, ptr noundef %45, i32 noundef %5)
  %47 = getelementptr inbounds i8, ptr %.04855, i64 %38
  %48 = getelementptr inbounds i8, ptr %.04954, i64 %39
  %49 = getelementptr inbounds i8, ptr %.05053, i64 %40
  %50 = getelementptr inbounds i8, ptr %.05152, i64 %41
  %51 = add nsw i32 %.057, 1
  %52 = icmp slt i32 %51, %10
  br i1 %52, label %42, label %._crit_edge, !llvm.loop !74
}